; Function Attrs: mustprogress nofree norecurse nosync nounwind willreturn memory(read, argmem: readwrite, inaccessiblemem: none) uwtable
define noundef zeroext i1 @_ZN3net16HpackInputStream13PeekNextOctetEPh(ptr noundef nonnull align 8 captures(none) dereferenceable(33) %0, ptr noundef writeonly captures(none) %1) local_unnamed_addr #6 align 2 {
  %3 = getelementptr inbounds nuw i8, ptr %0, i64 8
  %4 = load i64, ptr %3, align 8, !tbaa !10
  %5 = icmp eq i64 %4, 0
  br i1 %5, label %6, label %8

6:                                                ; preds = %2
  %7 = getelementptr inbounds nuw i8, ptr %0, i64 32
  store i8 1, ptr %7, align 8, !tbaa !12
  br label %14

8:                                                ; preds = %2
  %9 = getelementptr inbounds nuw i8, ptr %0, i64 16
  %10 = load i64, ptr %9, align 8, !tbaa !16
  %.not = icmp eq i64 %10, 0
  br i1 %.not, label %11, label %14

11:                                               ; preds = %8
  %12 = load ptr, ptr %0, align 8, !tbaa !17
  %13 = load i8, ptr %12, align 1, !tbaa !18
  store i8 %13, ptr %1, align 1, !tbaa !18
  br label %14

14:                                               ; preds = %8, %11, %6
  %.0 = phi i1 [ false, %6 ], [ true, %11 ], [ false, %8 ]
  ret i1 %.0
}